Certificate:
    Data:
        Version: 3 (0x2)
        Serial Number:
            0d:c3:0d:c8:78:d0:c2:8c:66:d6:bf:ae:79:c6:c7:8a
    Signature Algorithm: sha256WithRSAEncryption
        Issuer: CN=majin
        Validity
            Not Before: Apr  6 03:04:45 2016 GMT
            Not After : Apr  4 03:04:45 2026 GMT
        Subject: CN=localhost
        Subject Public Key Info:
            Public Key Algorithm: rsaEncryption
                Public-Key: (2048 bit)
                Modulus:
                    00:f7:60:c4:66:57:f8:d7:c9:22:1f:64:bc:38:a5:
                    46:56:d8:0d:2f:7e:5e:b8:0c:f9:03:ed:08:d0:8d:
                    19:0c:4c:73:0e:c0:eb:96:bf:fe:41:19:1b:cc:6a:
                    c1:b4:8d:b4:43:b7:f2:3c:e5:b6:30:86:a5:37:69:
                    c7:80:aa:76:8b:b2:1e:08:3b:ec:12:85:0d:b5:93:
                    f2:f5:eb:02:53:4b:61:d0:ca:75:25:7b:22:e9:4e:
                    8b:97:4f:73:a9:3e:b1:44:78:6e:33:55:c3:9d:05:
                    81:e8:89:cb:83:35:2c:af:19:9c:81:97:cf:01:ec:
                    5e:05:bd:2b:d6:a5:cc:b7:27:11:86:4a:c4:aa:42:
                    c3:bf:5a:c9:cb:1c:f8:15:66:6c:70:f6:be:5a:b4:
                    5d:e9:44:38:db:e2:cd:83:2c:61:d8:50:10:8e:2f:
                    71:26:64:5c:34:3d:5c:5d:d7:9a:e4:a2:0f:d6:e2:
                    28:f8:68:9b:31:d8:1f:91:97:a4:84:2e:6d:80:06:
                    eb:24:52:26:f9:8f:42:ef:1c:91:92:79:5b:4a:5b:
                    d4:83:4a:43:4c:71:4e:d9:db:ad:6c:21:95:fc:6b:
                    f5:ce:c6:3f:a7:ff:c0:41:90:9a:0f:d0:cf:b0:c1:
                    37:27:c2:61:2f:78:f4:21:b7:ea:4a:3b:4b:6a:fc:
                    4d:85
                Exponent: 65537 (0x10001)
        X509v3 extensions:
            X509v3 Basic Constraints: 
                CA:FALSE
            X509v3 Subject Key Identifier: 
                F8:54:FC:16:B5:F8:F5:7F:9B:E0:83:78:83:3D:A4:E8:4E:4A:D5:0F
            X509v3 Authority Key Identifier: 
                keyid:6B:F1:77:9A:B2:B6:65:A7:7F:E9:AB:D9:B6:5C:E2:A5:57:0B:8F:09
                DirName:/CN=majin
                serial:EB:52:2A:7B:EC:DC:3D:32

            X509v3 Extended Key Usage: 
                TLS Web Server Authentication
            X509v3 Key Usage: 
                Digital Signature, Key Encipherment
    Signature Algorithm: sha256WithRSAEncryption
         92:64:94:f8:c1:3d:ba:d8:e9:02:c9:c9:16:d2:a9:0d:ff:61:
         a2:93:2e:4b:fa:fe:b9:2b:81:94:b3:f8:96:33:2a:56:3e:d3:
         30:91:12:55:7d:76:e2:bd:01:fc:5c:9f:9c:59:40:e8:8d:d9:
         4e:14:a4:16:6f:5e:34:01:4b:bc:4c:03:17:19:a4:3a:a6:5d:
         f3:83:ae:cd:1b:52:65:ca:8c:c7:51:d8:a9:1c:46:21:1b:cf:
         92:41:6b:b4:40:f6:53:a8:0c:05:3c:10:5d:83:8f:67:dd:59:
         c9:2e:25:f2:43:b1:f3:fb:99:e1:fa:22:2f:10:5d:40:9d:84:
         84:dc:05:3a:43:96:a1:c1:0b:f3:6b:fe:ea:c9:31:22:d7:22:
         54:92:0d:bc:0c:7b:d5:fa:53:0a:0d:40:83:94:b6:e3:64:f8:
         2b:6e:e5:ea:42:e7:24:af:bb:55:6a:33:17:18:ec:c0:08:42:
         72:36:41:ab:dd:04:fa:03:91:81:a6:ae:60:80:2c:f5:2b:22:
         af:2d:34:f0:93:ad:d1:43:e2:fc:e0:6b:6d:27:c2:e4:fd:9c:
         7c:28:ec:b7:f7:07:8a:20:96:33:a8:71:e8:06:76:7b:4c:eb:
         69:85:cd:ff:e5:1b:77:c5:de:fb:d6:97:20:76:cf:a6:80:49:
         fb:a5:cb:14
-----BEGIN CERTIFICATE-----
MIIDQDCCAiigAwIBAgIQDcMNyHjQwoxm1r+uecbHijANBgkqhkiG9w0BAQsFADAQ
MQ4wDAYDVQQDDAVtYWppbjAeFw0xNjA0MDYwMzA0NDVaFw0yNjA0MDQwMzA0NDVa
MBQxEjAQBgNVBAMMCWxvY2FsaG9zdDCCASIwDQYJKoZIhvcNAQEBBQADggEPADCC
AQoCggEBAPdgxGZX+NfJIh9kvDilRlbYDS9+XrgM+QPtCNCNGQxMcw7A65a//kEZ
G8xqwbSNtEO38jzltjCGpTdpx4CqdouyHgg77BKFDbWT8vXrAlNLYdDKdSV7IulO
i5dPc6k+sUR4bjNVw50FgeiJy4M1LK8ZnIGXzwHsXgW9K9alzLcnEYZKxKpCw79a
ycsc+BVmbHD2vlq0XelEONvizYMsYdhQEI4vcSZkXDQ9XF3XmuSiD9biKPhomzHY
H5GXpIQubYAG6yRSJvmPQu8ckZJ5W0pb1INKQ0xxTtnbrWwhlfxr9c7GP6f/wEGQ
mg/Qz7DBNyfCYS949CG36ko7S2r8TYUCAwEAAaOBkTCBjjAJBgNVHRMEAjAAMB0G
A1UdDgQWBBT4VPwWtfj1f5vgg3iDPaToTkrVDzBABgNVHSMEOTA3gBRr8XeasrZl
p3/pq9m2XOKlVwuPCaEUpBIwEDEOMAwGA1UEAwwFbWFqaW6CCQDrUip77Nw9MjAT
BgNVHSUEDDAKBggrBgEFBQcDATALBgNVHQ8EBAMCBaAwDQYJKoZIhvcNAQELBQAD
ggEBAJJklPjBPbrY6QLJyRbSqQ3/YaKTLkv6/rkrgZSz+JYzKlY+0zCRElV9duK9
Afxcn5xZQOiN2U4UpBZvXjQBS7xMAxcZpDqmXfODrs0bUmXKjMdR2KkcRiEbz5JB
a7RA9lOoDAU8EF2Dj2fdWckuJfJDsfP7meH6Ii8QXUCdhITcBTpDlqHBC/Nr/urJ
MSLXIlSSDbwMe9X6UwoNQIOUtuNk+Ctu5epC5ySvu1VqMxcY7MAIQnI2QavdBPoD
kYGmrmCALPUrIq8tNPCTrdFD4vzga20nwuT9nHwo7Lf3B4ogljOocegGdntM62mF
zf/lG3fF3vvWlyB2z6aASfulyxQ=
-----END CERTIFICATE-----
